; Function Attrs: mustprogress uwtable
define void @_Z19gmx_trr_write_frameP8t_fileiolffPA3_KfiS3_S3_S3_(ptr noundef %0, i64 noundef %1, float noundef %2, float noundef %3, ptr noundef %4, i32 noundef %5, ptr noundef %6, ptr noundef %7, ptr noundef %8) local_unnamed_addr #0 personality ptr @__gxx_personality_v0 {
  %10 = alloca i64, align 8
  %11 = alloca float, align 4
  %12 = alloca float, align 4
  %13 = alloca i32, align 4
  %14 = alloca %"class.std::__cxx11::basic_string", align 8
  %15 = alloca %"class.std::allocator", align 1
  %16 = alloca %"class.std::filesystem::__cxx11::path", align 8
  store i64 %1, ptr %10, align 8, !tbaa !27
  store float %2, ptr %11, align 4, !tbaa !38
  store float %3, ptr %12, align 4, !tbaa !38
  store i32 %5, ptr %13, align 4, !tbaa !14
  %17 = call fastcc noundef zeroext i1 @_ZL12do_trr_frameP8t_fileiobPlPfS2_PA3_fPiS4_S4_S4_(ptr noundef %0, i1 noundef zeroext false, ptr noundef nonnull %10, ptr noundef nonnull %11, ptr noundef nonnull %12, ptr noundef %4, ptr noundef nonnull %13, ptr noundef %6, ptr noundef %7, ptr noundef %8)
  br i1 %17, label %34, label %18

18:                                               ; preds = %9
  call void @llvm.lifetime.start.p0(i64 32, ptr nonnull %14) #13
  call void @llvm.lifetime.start.p0(i64 1, ptr nonnull %15) #13
  call void @_ZNSt7__cxx1112basic_stringIcSt11char_traitsIcESaIcEEC2IS3_EEPKcRKS3_(ptr noundef nonnull align 8 dereferenceable(32) %14, ptr noundef nonnull @.str.43, ptr noundef nonnull align 1 dereferenceable(1) %15)
  call void @llvm.lifetime.start.p0(i64 40, ptr nonnull %16) #13
  invoke void @_ZNSt10filesystem7__cxx114pathC2IA122_cS1_EERKT_NS1_6formatE(ptr noundef nonnull align 8 dereferenceable(40) %16, ptr noundef nonnull align 1 dereferenceable(122) @.str.1, i8 noundef zeroext 2)
          to label %19 unwind label %21

19:                                               ; preds = %18
  invoke void @_Z18gmx_error_functionPKcRKNSt7__cxx1112basic_stringIcSt11char_traitsIcESaIcEEERKNSt10filesystem7__cxx114pathEi(ptr noundef nonnull @.str.26, ptr noundef nonnull align 8 dereferenceable(32) %14, ptr noundef nonnull align 8 dereferenceable(40) %16, i32 noundef 352) #14
          to label %20 unwind label %23

20:                                               ; preds = %19
  unreachable

21:                                               ; preds = %18
  %22 = landingpad { ptr, i32 }
          cleanup
  br label %25

23:                                               ; preds = %19
  %24 = landingpad { ptr, i32 }
          cleanup
  call void @_ZNSt10filesystem7__cxx114pathD2Ev(ptr noundef nonnull align 8 dereferenceable(40) %16) #13
  br label %25

25:                                               ; preds = %23, %21
  %.pn = phi { ptr, i32 } [ %24, %23 ], [ %22, %21 ]
  call void @llvm.lifetime.end.p0(i64 40, ptr nonnull %16) #13
  %26 = load ptr, ptr %14, align 8, !tbaa !4
  %27 = getelementptr inbounds nuw i8, ptr %14, i64 16
  %28 = icmp eq ptr %26, %27
  br i1 %28, label %_ZNKSt7__cxx1112basic_stringIcSt11char_traitsIcESaIcEE11_M_is_localEv.exit.thread.i.i, label %_ZNKSt7__cxx1112basic_stringIcSt11char_traitsIcESaIcEE11_M_is_localEv.exit.i.i

_ZNKSt7__cxx1112basic_stringIcSt11char_traitsIcESaIcEE11_M_is_localEv.exit.thread.i.i: ; preds = %25
  %29 = getelementptr inbounds nuw i8, ptr %14, i64 8
  %30 = load i64, ptr %29, align 8, !tbaa !12
  %31 = icmp ult i64 %30, 16
  call void @llvm.assume(i1 %31)
  br label %_ZNSt7__cxx1112basic_stringIcSt11char_traitsIcESaIcEED2Ev.exit

_ZNKSt7__cxx1112basic_stringIcSt11char_traitsIcESaIcEE11_M_is_localEv.exit.i.i: ; preds = %25
  %32 = load i64, ptr %27, align 8, !tbaa !13
  %33 = add i64 %32, 1
  call void @_ZdlPvm(ptr noundef %26, i64 noundef %33) #15
  br label %_ZNSt7__cxx1112basic_stringIcSt11char_traitsIcESaIcEED2Ev.exit

_ZNSt7__cxx1112basic_stringIcSt11char_traitsIcESaIcEED2Ev.exit: ; preds = %_ZNKSt7__cxx1112basic_stringIcSt11char_traitsIcESaIcEE11_M_is_localEv.exit.i.i, %_ZNKSt7__cxx1112basic_stringIcSt11char_traitsIcESaIcEE11_M_is_localEv.exit.thread.i.i
  call void @llvm.lifetime.end.p0(i64 1, ptr nonnull %15) #13
  call void @llvm.lifetime.end.p0(i64 32, ptr nonnull %14) #13
  resume { ptr, i32 } %.pn

34:                                               ; preds = %9
  ret void
}